; Function Attrs: mustprogress uwtable
define void @_ZNK6casadi9Smoothing11get_forwardExRKNSt7__cxx1112basic_stringIcSt11char_traitsIcESaIcEEERKSt6vectorIS6_SaIS6_EESD_RKSt3mapIS6_NS_11GenericTypeESt4lessIS6_ESaISt4pairIS7_SF_EEE(ptr dead_on_unwind noalias writable sret(%"class.casadi::Function") align 8 %0, ptr nocapture nonnull readnone align 8 %1, i64 noundef %2, ptr noundef nonnull align 8 dereferenceable(32) %3, ptr nocapture nonnull readnone align 8 %4, ptr nocapture nonnull readnone align 8 %5, ptr noundef nonnull align 8 dereferenceable(48) %6) unnamed_addr #3 align 2 personality ptr @__gxx_personality_v0 {
  %8 = tail call noalias noundef nonnull dereferenceable(1392) ptr @_Znwm(i64 noundef 1392) #26
  invoke void @_ZN6casadi16FunctionInternalC2ERKNSt7__cxx1112basic_stringIcSt11char_traitsIcESaIcEEE(ptr noundef nonnull align 8 dereferenceable(1304) %8, ptr noundef nonnull align 8 dereferenceable(32) %3)
          to label %9 unwind label %11

9:                                                ; preds = %7
  %10 = getelementptr inbounds i8, ptr %8, i64 1304
  store i64 %2, ptr %10, align 8
  store ptr getelementptr inbounds ({ [119 x ptr] }, ptr @_ZTVN6casadi9SmoothingE, i64 0, i32 0, i64 2), ptr %8, align 8
  tail call void @_ZN6casadi8Function6createEPNS_16FunctionInternalERKSt3mapINSt7__cxx1112basic_stringIcSt11char_traitsIcESaIcEEENS_11GenericTypeESt4lessIS9_ESaISt4pairIKS9_SA_EEE(ptr dead_on_unwind writable sret(%"class.casadi::Function") align 8 %0, ptr noundef nonnull %8, ptr noundef nonnull align 8 dereferenceable(48) %6)
  ret void

11:                                               ; preds = %7
  %12 = landingpad { ptr, i32 }
          cleanup
  tail call void @_ZdlPv(ptr noundef nonnull %8) #24
  resume { ptr, i32 } %12
}